; Function Attrs: mustprogress uwtable
define void @_ZN7rocksdb23OptimisticTransactionDB4OpenERKNS_9DBOptionsERKNSt7__cxx1112basic_stringIcSt11char_traitsIcESaIcEEERKSt6vectorINS_22ColumnFamilyDescriptorESaISD_EEPSC_IPNS_18ColumnFamilyHandleESaISJ_EEPPS0_(ptr dead_on_unwind noalias writable sret(%"class.rocksdb::Status") align 8 initializes((0, 6), (8, 16)) %0, ptr noundef nonnull align 8 dereferenceable(706) %1, ptr noundef nonnull align 8 dereferenceable(32) %2, ptr noundef nonnull readonly align 8 captures(none) dereferenceable(24) %3, ptr noundef %4, ptr noundef writeonly captures(none) %5) local_unnamed_addr #4 align 2 personality ptr @__gxx_personality_v0 {
  %7 = alloca %"struct.rocksdb::OptimisticTransactionDBOptions", align 8
  call void @llvm.lifetime.start.p0(i64 24, ptr nonnull %7) #24
  store i32 1, ptr %7, align 8, !tbaa !58
  %8 = getelementptr inbounds nuw i8, ptr %7, i64 4
  store i32 1048576, ptr %8, align 4, !tbaa !62
  %9 = getelementptr inbounds nuw i8, ptr %7, i64 8
  call void @llvm.memset.p0.i64(ptr noundef nonnull align 8 dereferenceable(16) %9, i8 0, i64 16, i1 false)
  invoke void @_ZN7rocksdb23OptimisticTransactionDB4OpenERKNS_9DBOptionsERKNS_30OptimisticTransactionDBOptionsERKNSt7__cxx1112basic_stringIcSt11char_traitsIcESaIcEEERKSt6vectorINS_22ColumnFamilyDescriptorESaISG_EEPSF_IPNS_18ColumnFamilyHandleESaISM_EEPPS0_(ptr dead_on_unwind writable sret(%"class.rocksdb::Status") align 8 %0, ptr noundef nonnull align 8 dereferenceable(706) %1, ptr noundef nonnull align 8 dereferenceable(24) %7, ptr noundef nonnull align 8 dereferenceable(32) %2, ptr noundef nonnull align 8 dereferenceable(24) %3, ptr noundef %4, ptr noundef %5)
          to label %10 unwind label %34

10:                                               ; preds = %6
  %11 = getelementptr inbounds nuw i8, ptr %7, i64 16
  %12 = load ptr, ptr %11, align 8, !tbaa !48
  %.not.i.i.i = icmp eq ptr %12, null
  br i1 %.not.i.i.i, label %_ZN7rocksdb30OptimisticTransactionDBOptionsD2Ev.exit, label %13

13:                                               ; preds = %10
  %14 = getelementptr inbounds nuw i8, ptr %12, i64 8
  %15 = load atomic i64, ptr %14 acquire, align 8
  %16 = icmp eq i64 %15, 4294967297
  %17 = trunc i64 %15 to i32
  br i1 %16, label %18, label %26

18:                                               ; preds = %13
  store i32 0, ptr %14, align 8, !tbaa !22
  %19 = getelementptr inbounds nuw i8, ptr %12, i64 12
  store i32 0, ptr %19, align 4, !tbaa !25
  %20 = load ptr, ptr %12, align 8, !tbaa !26
  %21 = getelementptr inbounds nuw i8, ptr %20, i64 16
  %22 = load ptr, ptr %21, align 8
  call void %22(ptr noundef nonnull align 8 dereferenceable(16) %12) #24
  %23 = load ptr, ptr %12, align 8, !tbaa !26
  %24 = getelementptr inbounds nuw i8, ptr %23, i64 24
  %25 = load ptr, ptr %24, align 8
  call void %25(ptr noundef nonnull align 8 dereferenceable(16) %12) #24
  br label %_ZN7rocksdb30OptimisticTransactionDBOptionsD2Ev.exit

26:                                               ; preds = %13
  %27 = load i8, ptr @__libc_single_threaded, align 1, !tbaa !17
  %.not.i.i.i.i = icmp eq i8 %27, 0
  br i1 %.not.i.i.i.i, label %30, label %28

28:                                               ; preds = %26
  %29 = add nsw i32 %17, -1
  store i32 %29, ptr %14, align 4, !tbaa !63
  br label %_ZN9__gnu_cxx27__exchange_and_add_dispatchEPii.exit.i.i.i.i

30:                                               ; preds = %26
  %31 = atomicrmw volatile add ptr %14, i32 -1 acq_rel, align 4
  br label %_ZN9__gnu_cxx27__exchange_and_add_dispatchEPii.exit.i.i.i.i

_ZN9__gnu_cxx27__exchange_and_add_dispatchEPii.exit.i.i.i.i: ; preds = %30, %28
  %.0.i.i.i.i.i = phi i32 [ %17, %28 ], [ %31, %30 ]
  %32 = icmp eq i32 %.0.i.i.i.i.i, 1
  br i1 %32, label %33, label %_ZN7rocksdb30OptimisticTransactionDBOptionsD2Ev.exit, !prof !64

33:                                               ; preds = %_ZN9__gnu_cxx27__exchange_and_add_dispatchEPii.exit.i.i.i.i
  call void @_ZNSt16_Sp_counted_baseILN9__gnu_cxx12_Lock_policyE2EE24_M_release_last_use_coldEv(ptr noundef nonnull align 8 dereferenceable(16) %12) #24
  br label %_ZN7rocksdb30OptimisticTransactionDBOptionsD2Ev.exit

_ZN7rocksdb30OptimisticTransactionDBOptionsD2Ev.exit: ; preds = %10, %18, %_ZN9__gnu_cxx27__exchange_and_add_dispatchEPii.exit.i.i.i.i, %33
  call void @llvm.lifetime.end.p0(i64 24, ptr nonnull %7) #24
  ret void

34:                                               ; preds = %6
  %35 = landingpad { ptr, i32 }
          cleanup
  call void @_ZN7rocksdb30OptimisticTransactionDBOptionsD2Ev(ptr noundef nonnull align 8 dereferenceable(24) %7) #24
  call void @llvm.lifetime.end.p0(i64 24, ptr nonnull %7) #24
  resume { ptr, i32 } %35
}